Certificate:
    Data:
        Version: 1 (0x0)
        Serial Number: 1 (0x1)
        Signature Algorithm: sha1WithRSAEncryption
        Issuer: O=Server CA ON, OU=Server CA OU/emailAddress=serverca@foo.com, L=Metropolis, ST=New York, C=US, CN=Server CA CN
        Validity
            Not Before: Feb 28 21:59:23 2011 GMT
            Not After : Feb 25 21:59:23 2021 GMT
        Subject: C=US, ST=New York, O=Trumpet, OU=Eng, CN=localhost
        Subject Public Key Info:
            Public Key Algorithm: rsaEncryption
                Public-Key: (2048 bit)
                Modulus:
                    00:b1:5b:7c:cd:72:41:0c:51:8f:c9:11:55:c2:12:
                    61:01:67:4f:99:b0:25:80:ce:a1:7e:8c:9e:1f:75:
                    cf:f4:ad:20:87:3d:5c:56:0f:1a:f6:91:f2:e7:07:
                    2c:58:30:5f:20:21:f0:a1:20:02:6e:d1:68:9f:59:
                    13:a6:e8:ca:74:2f:18:ff:fd:b7:e5:0e:f0:43:78:
                    19:03:95:7c:0f:6a:9f:ce:63:46:82:b6:89:ff:bc:
                    cc:7f:00:0b:d7:a4:53:59:0a:23:48:e3:09:43:25:
                    de:2e:79:14:08:2b:46:d9:ae:c8:2b:64:ac:7e:16:
                    e7:df:95:3c:75:0a:1e:73:6e:6c:9a:4d:e4:58:04:
                    63:8c:89:a3:d1:75:57:b5:31:5c:04:be:aa:74:06:
                    d5:d1:48:ff:a9:8b:47:f7:df:82:52:47:d6:33:0e:
                    bc:28:bd:93:46:87:cb:bd:bd:4a:d2:ad:15:e3:1c:
                    5d:d3:73:52:79:a3:d6:78:09:c2:9d:91:b7:66:f2:
                    62:71:38:3f:d2:57:a6:1b:7c:bc:5c:5a:0a:61:83:
                    da:f6:e0:cf:a7:f7:19:dc:53:e2:00:ae:3e:ae:2d:
                    8d:2f:88:3b:45:ed:bf:fa:48:36:22:ad:fc:28:51:
                    5b:aa:3b:d3:03:8d:c5:7f:c3:f4:eb:35:48:01:36:
                    78:63
                Exponent: 65537 (0x10001)
    Signature Algorithm: sha1WithRSAEncryption
        9b:3d:5a:30:cb:e3:04:4c:ea:4f:d8:58:60:5c:aa:e0:09:f1:
        3a:5b:2c:cc:d6:47:fd:ec:e2:c4:99:e1:da:39:f6:7f:b6:15:
        56:09:7e:f0:97:40:c3:d6:39:64:6f:9d:05:48:d9:b1:c2:59:
        cf:69:56:f9:37:89:43:7b:cf:aa:9b:ca:fc:ab:bf:16:a3:ac:
        8c:cd:73:b2:f9:e4:0b:a3:74:a3:d3:fe:d9:68:09:aa:9f:06:
        08:01:40:93:44:8a:eb:7e:d5:f5:8c:2a:96:2b:a1:44:35:ec:
        af:bc:45:0e:ca:59:60:13:01:bd:11:2f:b6:db:fc:07:33:54:
        73:09:9a:9a:92:76:b1:6f:68:21:d7:14:50:a7:77:fb:40:c8:
        ac:4a:59:a2:ae:42:1b:2a:6c:3d:47:fd:38:87:32:20:cb:20:
        a6:6a:51:a9:85:c8:50:62:eb:1b:65:82:2c:fb:cc:42:9e:6d:
        b4:b5:e9:07:33:5a:77:1c:fb:78:8a:a1:6c:4b:b2:ca:0d:1b:
        df:f7:6b:cb:ae:b1:58:86:de:f7:7d:ec:e2:cf:fe:c4:3b:ee:
        1a:85:e0:2f:59:70:be:a1:7a:37:23:6c:bf:97:26:49:34:da:
        bf:a7:a8:ff:c8:74:05:c7:08:da:da:76:0d:b5:87:66:bf:36:
        ce:ee:4b:81
-----BEGIN CERTIFICATE-----
MIIDZDCCAkwCAQEwDQYJKoZIhvcNAQEFBQAwgZsxFTATBgNVBAoTDFNlcnZlciBD
QSBPTjEVMBMGA1UECxMMU2VydmVyIENBIE9VMR8wHQYJKoZIhvcNAQkBFhBzZXJ2
ZXJjYUBmb28uY29tMRMwEQYDVQQHEwpNZXRyb3BvbGlzMREwDwYDVQQIEwhOZXcg
WW9yazELMAkGA1UEBhMCVVMxFTATBgNVBAMTDFNlcnZlciBDQSBDTjAeFw0xMTAy
MjgyMTU5MjNaFw0yMTAyMjUyMTU5MjNaMFQxCzAJBgNVBAYTAlVTMREwDwYDVQQI
EwhOZXcgWW9yazEQMA4GA1UEChMHVHJ1bXBldDEMMAoGA1UECxMDRW5nMRIwEAYD
VQQDEwlsb2NhbGhvc3QwggEiMA0GCSqGSIb3DQEBAQUAA4IBDwAwggEKAoIBAQCx
W3zNckEMUY/JEVXCEmEBZ0+ZsCWAzqF+jJ4fdc/0rSCHPVxWDxr2kfLnByxYMF8g
IfChIAJu0WifWROm6Mp0Lxj//bflDvBDeBkDlXwPap/OY0aCton/vMx/AAvXpFNZ
CiNI4wlDJd4ueRQIK0bZrsgrZKx+FufflTx1Ch5zbmyaTeRYBGOMiaPRdVe1MVwE
vqp0BtXRSP+pi0f334JSR9YzDrwovZNGh8u9vUrSrRXjHF3Tc1J5o9Z4CcKdkbdm
8mJxOD/SV6YbfLxcWgphg9r24M+n9xncU+IArj6uLY0viDtF7b/6SDYirfwoUVuq
O9MDjcV/w/TrNUgBNnhjAgMBAAEwDQYJKoZIhvcNAQEFBQADggEBAJs9WjDL4wRM
6k/YWGBcquAJ8TpbLMzWR/3s4sSZ4do59n+2FVYJfvCXQMPWOWRvnQVI2bHCWc9p
Vvk3iUN7z6qbyvyrvxajrIzNc7L55AujdKPT/tloCaqfBggBQJNEiut+1fWMKpYr
oUQ17K+8RQ7KWWATAb0RL7bb/AczVHMJmpqSdrFvaCHXFFCnd/tAyKxKWaKuQhsq
bD1H/TiHMiDLIKZqUamFyFBi6xtlgiz7zEKebbS16QczWncc+3iKoWxLssoNG9/3
a8uusViG3vd97OLP/sQ77hqF4C9ZcL6hejcjbL+XJkk02r+nqP/IdAXHCNradg21
h2a/Ns7uS4E=
-----END CERTIFICATE-----
