Certificate:
    Data:
        Version: 1 (0x0)
        Serial Number: 1 (0x1)
        Signature Algorithm: sha1WithRSAEncryption
        Issuer: O=Client CA ON, OU=Client CA OU/emailAddress=clientca@foo.com, L=Metropolis, ST=New York, C=US, CN=Client CA CN
        Validity
            Not Before: Feb 24 18:59:21 2011 GMT
            Not After : Feb 21 18:59:21 2021 GMT
        Subject: C=US, ST=New York, O=Client Cert ON, OU=Client Cert OU, CN=client cert
        Subject Public Key Info:
            Public Key Algorithm: rsaEncryption
                Public-Key: (2048 bit)
                Modulus:
                    00:95:74:e1:03:d9:2d:4e:7d:62:4f:77:e5:bd:69:
                    1e:c4:a8:56:5b:02:9d:7d:75:2d:97:93:d2:fc:26:
                    77:79:09:b7:ea:c1:ba:35:73:71:92:31:85:bb:5f:
                    b3:c9:47:e1:ec:07:eb:0c:d6:78:3c:62:4f:58:41:
                    22:5f:74:57:0b:30:e7:92:36:37:81:e1:53:a9:ba:
                    c9:db:0d:5f:9a:b5:98:fa:50:3a:da:f0:2b:05:c7:
                    1d:c5:07:c3:d3:96:74:9b:e3:76:aa:e2:c5:1c:7d:
                    3f:74:61:fe:37:17:f3:da:25:1e:f4:49:0b:c5:65:
                    d3:cb:b9:1d:4b:50:fa:41:15:07:89:b9:d6:35:5e:
                    9d:60:bf:d5:9c:46:55:c9:de:0c:4a:37:a1:b0:ea:
                    a0:11:4d:6e:f7:f5:96:1b:5a:f2:c9:58:31:b5:9d:
                    04:6d:7e:66:c7:bd:81:8f:30:e8:0a:b4:3a:1f:76:
                    0f:6d:e6:a3:4c:2b:02:b6:19:04:44:42:0e:e9:15:
                    03:a0:be:01:65:f0:bb:58:06:c2:50:30:fa:a9:cb:
                    08:c8:e9:56:cc:f0:bf:a1:e9:03:e3:2c:d5:53:b6:
                    6d:52:49:16:62:9f:bc:0a:4d:2f:58:d8:40:25:31:
                    79:75:d3:02:f3:e1:4d:cf:da:b7:1a:fb:d2:74:bf:
                    15:07
                Exponent: 65537 (0x10001)
    Signature Algorithm: sha1WithRSAEncryption
        93:7b:da:87:b4:70:6e:e2:44:59:7e:91:ef:03:08:1e:73:9a:
        b3:40:47:85:a3:2b:ce:f9:21:0d:80:c5:fd:ec:1e:84:d7:54:
        2b:45:2f:a7:8c:09:b4:90:94:5d:8b:db:eb:cd:78:69:d5:d6:
        3a:e5:7d:3c:fc:89:50:54:db:89:42:78:48:48:67:d7:fa:64:
        3d:24:a5:e2:e7:d4:5a:01:9b:b6:ec:ee:24:9f:0e:4b:46:25:
        03:c1:c9:74:b2:0f:76:3d:b9:3a:a2:3f:76:1e:c9:12:59:88:
        a2:6f:ff:ff:79:1b:4b:96:eb:f7:91:1d:d5:7a:f1:7b:47:59:
        64:4e:0f:b7:59:d6:8e:24:e4:cc:e6:52:bf:40:d9:59:b2:55:
        d9:75:b9:92:49:77:a4:45:dc:1e:dc:07:47:49:6c:5b:7e:e7:
        08:f4:72:cd:97:27:66:40:ea:83:5d:fa:87:02:2e:cd:f2:41:
        59:3d:07:e0:0b:f8:a3:0e:40:1b:90:e5:17:fb:8a:77:2e:3b:
        73:db:f5:6f:51:54:d6:cb:1e:68:8d:ad:79:f0:9d:06:07:c9:
        61:47:d1:0e:ac:61:82:6a:e9:18:90:1c:6f:74:5b:0d:28:c6:
        e7:c1:bb:aa:c3:37:9d:9d:da:76:79:68:43:bc:7f:76:01:29:
        3b:e9:3a:95
-----BEGIN CERTIFICATE-----
MIIDeDCCAmACAQEwDQYJKoZIhvcNAQEFBQAwgZsxFTATBgNVBAoTDENsaWVudCBD
QSBPTjEVMBMGA1UECxMMQ2xpZW50IENBIE9VMR8wHQYJKoZIhvcNAQkBFhBjbGll
bnRjYUBmb28uY29tMRMwEQYDVQQHEwpNZXRyb3BvbGlzMREwDwYDVQQIEwhOZXcg
WW9yazELMAkGA1UEBhMCVVMxFTATBgNVBAMTDENsaWVudCBDQSBDTjAeFw0xMTAy
MjQxODU5MjFaFw0yMTAyMjExODU5MjFaMGgxCzAJBgNVBAYTAlVTMREwDwYDVQQI
EwhOZXcgWW9yazEXMBUGA1UEChMOQ2xpZW50IENlcnQgT04xFzAVBgNVBAsTDkNs
aWVudCBDZXJ0IE9VMRQwEgYDVQQDEwtjbGllbnQgY2VydDCCASIwDQYJKoZIhvcN
AQEBBQADggEPADCCAQoCggEBAJV04QPZLU59Yk935b1pHsSoVlsCnX11LZeT0vwm
d3kJt+rBujVzcZIxhbtfs8lH4ewH6wzWeDxiT1hBIl90Vwsw55I2N4HhU6m6ydsN
X5q1mPpQOtrwKwXHHcUHw9OWdJvjdqrixRx9P3Rh/jcX89olHvRJC8Vl08u5HUtQ
+kEVB4m51jVenWC/1ZxGVcneDEo3obDqoBFNbvf1lhta8slYMbWdBG1+Zse9gY8w
6Aq0Oh92D23mo0wrArYZBERCDukVA6C+AWXwu1gGwlAw+qnLCMjpVszwv6HpA+Ms
1VO2bVJJFmKfvApNL1jYQCUxeXXTAvPhTc/atxr70nS/FQcCAwEAATANBgkqhkiG
9w0BAQUFAAOCAQEAk3vah7RwbuJEWX6R7wMIHnOas0BHhaMrzvkhDYDF/ewehNdU
K0Uvp4wJtJCUXYvb6814adXWOuV9PPyJUFTbiUJ4SEhn1/pkPSSl4ufUWgGbtuzu
JJ8OS0YlA8HJdLIPdj25OqI/dh7JElmIom///3kbS5br95Ed1Xrxe0dZZE4Pt1nW
jiTkzOZSv0DZWbJV2XW5kkl3pEXcHtwHR0lsW37nCPRyzZcnZkDqg136hwIuzfJB
WT0H4Av4ow5AG5DlF/uKdy47c9v1b1FU1sseaI2tefCdBgfJYUfRDqxhgmrpGJAc
b3RbDSjG58G7qsM3nZ3adnloQ7x/dgEpO+k6lQ==
-----END CERTIFICATE-----
